; Function Attrs: mustprogress nofree norecurse nosync nounwind willreturn memory(none) uwtable
define internal noundef i64 @_ZN4llvm6objectL12resolvePPC64Emmmml(i64 noundef %0, i64 noundef %1, i64 noundef %2, i64 %3, i64 noundef %4) #1 {
  %6 = add i64 %4, %2
  switch i64 %0, label %14 [
    i64 1, label %7
    i64 38, label %15
    i64 26, label %9
    i64 44, label %12
  ]

7:                                                ; preds = %5
  %8 = and i64 %6, 4294967295
  br label %15

9:                                                ; preds = %5
  %10 = sub i64 %6, %1
  %11 = and i64 %10, 4294967295
  br label %15

12:                                               ; preds = %5
  %13 = sub i64 %6, %1
  br label %15

14:                                               ; preds = %5
  unreachable

15:                                               ; preds = %5, %12, %9, %7
  %.0 = phi i64 [ %13, %12 ], [ %11, %9 ], [ %8, %7 ], [ %6, %5 ]
  ret i64 %.0
}